target datalayout = "e-m:e-p270:32:32-p271:32:32-p272:64:64-i64:64-i128:128-f80:128-n8:16:32:64-S128"
target triple = "x86_64-pc-linux-gnu"

%struct.RewriteStateData = type { ptr, ptr, ptr, ptr, i32, i8, i32, i32, i32, i32, ptr, i64, ptr, ptr, ptr, i32 }
%struct.HASH_SEQ_STATUS = type { ptr, i32, ptr, i8, i32 }
%struct.UnresolvedTupData = type { %struct.TidHashKey, %struct.ItemPointerData, ptr }
%struct.TidHashKey = type { i32, %struct.ItemPointerData }
%struct.ItemPointerData = type { %struct.BlockIdData, i16 }
%struct.BlockIdData = type { i16, i16 }
%struct.HeapTupleData = type { i32, %struct.ItemPointerData, i32, ptr }
%struct.HeapTupleHeaderData = type { %union.anon, %struct.ItemPointerData, i16, i16, i8, [0 x i8] }
%union.anon = type { %struct.HeapTupleFields }
%struct.HeapTupleFields = type { i32, i32, %union.anon.0 }
%union.anon.0 = type { i32 }
%struct.RewriteMappingFile = type { i32, i32, i64, %struct.dclist_head, [1024 x i8] }
%struct.dclist_head = type { %struct.dlist_head, i32 }
%struct.dlist_head = type { %struct.dlist_node }
%struct.dlist_node = type { ptr, ptr }

@.str.6 = private unnamed_addr constant [14 x i8] c"rewriteheap.c\00", align 1
@.str.9 = private unnamed_addr constant [30 x i8] c"could not fsync file \22%s\22: %m\00", align 1
@__func__.logical_end_heap_rewrite = private unnamed_addr constant [25 x i8] c"logical_end_heap_rewrite\00", align 1

; Function Attrs: inlinehint nounwind uwtable
define internal void @BlockIdSet(ptr noundef %0, i32 noundef %1) #3 {
  %3 = alloca ptr, align 8
  %4 = alloca i32, align 4
  store ptr %0, ptr %3, align 8
  store i32 %1, ptr %4, align 4
  %5 = load i32, ptr %4, align 4
  %6 = lshr i32 %5, 16
  %7 = trunc i32 %6 to i16
  %8 = load ptr, ptr %3, align 8
  %9 = getelementptr inbounds nuw %struct.BlockIdData, ptr %8, i32 0, i32 0
  store i16 %7, ptr %9, align 2
  %10 = load i32, ptr %4, align 4
  %11 = and i32 %10, 65535
  %12 = trunc i32 %11 to i16
  %13 = load ptr, ptr %3, align 8
  %14 = getelementptr inbounds nuw %struct.BlockIdData, ptr %13, i32 0, i32 1
  store i16 %12, ptr %14, align 2
  ret void
}

; Function Attrs: nounwind uwtable
define internal void @logical_end_heap_rewrite(ptr noundef %0) #0 {
  %2 = alloca ptr, align 8
  %3 = alloca %struct.HASH_SEQ_STATUS, align 8
  %4 = alloca ptr, align 8
  %5 = alloca i32, align 4
  store ptr %0, ptr %2, align 8
  call void @llvm.lifetime.start.p0(i64 32, ptr %3) #10
  call void @llvm.lifetime.start.p0(i64 8, ptr %4) #10
  %6 = load ptr, ptr %2, align 8
  %7 = getelementptr inbounds nuw %struct.RewriteStateData, ptr %6, i32 0, i32 5
  %8 = load i8, ptr %7, align 4, !range !4, !noundef !5
  %9 = trunc i8 %8 to i1
  br i1 %9, label %11, label %10

10:                                               ; preds = %1
  store i32 1, ptr %5, align 4
  br label %56

11:                                               ; preds = %1
  %12 = load ptr, ptr %2, align 8
  %13 = getelementptr inbounds nuw %struct.RewriteStateData, ptr %12, i32 0, i32 15
  %14 = load i32, ptr %13, align 8
  %15 = icmp ugt i32 %14, 0
  br i1 %15, label %16, label %18

16:                                               ; preds = %11
  %17 = load ptr, ptr %2, align 8
  call void @logical_heap_rewrite_flush_mappings(ptr noundef %17)
  br label %18

18:                                               ; preds = %16, %11
  %19 = load ptr, ptr %2, align 8
  %20 = getelementptr inbounds nuw %struct.RewriteStateData, ptr %19, i32 0, i32 14
  %21 = load ptr, ptr %20, align 8
  call void @hash_seq_init(ptr noundef %3, ptr noundef %21)
  br label %22

22:                                               ; preds = %51, %18
  %23 = call ptr @hash_seq_search(ptr noundef %3)
  store ptr %23, ptr %4, align 8
  %24 = icmp ne ptr %23, null
  br i1 %24, label %25, label %55

25:                                               ; preds = %22
  %26 = load ptr, ptr %4, align 8
  %27 = getelementptr inbounds nuw %struct.RewriteMappingFile, ptr %26, i32 0, i32 1
  %28 = load i32, ptr %27, align 4
  %29 = call i32 @FileSync(i32 noundef %28, i32 noundef 167772193)
  %30 = icmp ne i32 %29, 0
  br i1 %30, label %31, label %51

31:                                               ; preds = %25
  br label %32

32:                                               ; preds = %31
  br i1 false, label %33, label %39

33:                                               ; preds = %32
  %34 = call i32 @data_sync_elevel(i32 noundef 21)
  %35 = icmp sge i32 %34, 21
  br i1 %35, label %36, label %39

36:                                               ; preds = %33
  %37 = call i32 @data_sync_elevel(i32 noundef 21)
  %38 = call zeroext i1 @errstart_cold(i32 noundef %37, ptr noundef null) #11
  br i1 %38, label %42, label %48

39:                                               ; preds = %33, %32
  %40 = call i32 @data_sync_elevel(i32 noundef 21)
  %41 = call zeroext i1 @errstart(i32 noundef %40, ptr noundef null)
  br i1 %41, label %42, label %48

42:                                               ; preds = %39, %36
  %43 = call i32 @errcode_for_file_access()
  %44 = load ptr, ptr %4, align 8
  %45 = getelementptr inbounds nuw %struct.RewriteMappingFile, ptr %44, i32 0, i32 4
  %46 = getelementptr inbounds [1024 x i8], ptr %45, i64 0, i64 0
  %47 = call i32 (ptr, ...) @errmsg(ptr noundef @.str.9, ptr noundef %46)
  call void @errfinish(ptr noundef @.str.6, i32 noundef 925, ptr noundef @__func__.logical_end_heap_rewrite)
  br label %48

48:                                               ; preds = %42, %39, %36
  br label %49

49:                                               ; preds = %48
  br label %50

50:                                               ; preds = %49
  br label %51

51:                                               ; preds = %50, %25
  %52 = load ptr, ptr %4, align 8
  %53 = getelementptr inbounds nuw %struct.RewriteMappingFile, ptr %52, i32 0, i32 1
  %54 = load i32, ptr %53, align 4
  call void @FileClose(i32 noundef %54)
  br label %22, !llvm.loop !8

55:                                               ; preds = %22
  store i32 0, ptr %5, align 4
  br label %56

56:                                               ; preds = %55, %10
  call void @llvm.lifetime.end.p0(i64 8, ptr %4) #10
  call void @llvm.lifetime.end.p0(i64 32, ptr %3) #10
  %57 = load i32, ptr %5, align 4
  switch i32 %57, label %59 [
    i32 0, label %58
    i32 1, label %58
  ]

58:                                               ; preds = %56, %56
  ret void

59:                                               ; preds = %56
  unreachable
}

; Function Attrs: inlinehint nounwind uwtable
define internal void @ItemPointerSetInvalid(ptr noundef %0) #3 {
  %2 = alloca ptr, align 8
  store ptr %0, ptr %2, align 8
  %3 = load ptr, ptr %2, align 8
  %4 = getelementptr inbounds nuw %struct.ItemPointerData, ptr %3, i32 0, i32 0
  call void @BlockIdSet(ptr noundef %4, i32 noundef -1)
  %5 = load ptr, ptr %2, align 8
  %6 = getelementptr inbounds nuw %struct.ItemPointerData, ptr %5, i32 0, i32 1
  store i16 0, ptr %6, align 2
  ret void
}

; Function Attrs: nounwind uwtable
define dso_local void @end_heap_rewrite(ptr noundef %0) #0 {
  %2 = alloca ptr, align 8
  %3 = alloca %struct.HASH_SEQ_STATUS, align 8
  %4 = alloca ptr, align 8
  store ptr %0, ptr %2, align 8
  call void @llvm.lifetime.start.p0(i64 32, ptr %3) #10
  call void @llvm.lifetime.start.p0(i64 8, ptr %4) #10
  %5 = load ptr, ptr %2, align 8
  %6 = getelementptr inbounds nuw %struct.RewriteStateData, ptr %5, i32 0, i32 12
  %7 = load ptr, ptr %6, align 8
  call void @hash_seq_init(ptr noundef %3, ptr noundef %7)
  br label %8

8:                                                ; preds = %11, %1
  %9 = call ptr @hash_seq_search(ptr noundef %3)
  store ptr %9, ptr %4, align 8
  %10 = icmp ne ptr %9, null
  br i1 %10, label %11, label %22

11:                                               ; preds = %8
  %12 = load ptr, ptr %4, align 8
  %13 = getelementptr inbounds nuw %struct.UnresolvedTupData, ptr %12, i32 0, i32 2
  %14 = load ptr, ptr %13, align 8
  %15 = getelementptr inbounds nuw %struct.HeapTupleData, ptr %14, i32 0, i32 3
  %16 = load ptr, ptr %15, align 8
  %17 = getelementptr inbounds nuw %struct.HeapTupleHeaderData, ptr %16, i32 0, i32 1
  call void @ItemPointerSetInvalid(ptr noundef %17)
  %18 = load ptr, ptr %2, align 8
  %19 = load ptr, ptr %4, align 8
  %20 = getelementptr inbounds nuw %struct.UnresolvedTupData, ptr %19, i32 0, i32 2
  %21 = load ptr, ptr %20, align 8
  call void @raw_heap_insert(ptr noundef %18, ptr noundef %21)
  br label %8, !llvm.loop !6

22:                                               ; preds = %8
  %23 = load ptr, ptr %2, align 8
  %24 = getelementptr inbounds nuw %struct.RewriteStateData, ptr %23, i32 0, i32 3
  %25 = load ptr, ptr %24, align 8
  %26 = icmp ne ptr %25, null
  br i1 %26, label %27, label %39

27:                                               ; preds = %22
  %28 = load ptr, ptr %2, align 8
  %29 = getelementptr inbounds nuw %struct.RewriteStateData, ptr %28, i32 0, i32 2
  %30 = load ptr, ptr %29, align 8
  %31 = load ptr, ptr %2, align 8
  %32 = getelementptr inbounds nuw %struct.RewriteStateData, ptr %31, i32 0, i32 4
  %33 = load i32, ptr %32, align 8
  %34 = load ptr, ptr %2, align 8
  %35 = getelementptr inbounds nuw %struct.RewriteStateData, ptr %34, i32 0, i32 3
  %36 = load ptr, ptr %35, align 8
  call void @smgr_bulk_write(ptr noundef %30, i32 noundef %33, ptr noundef %36, i1 noundef zeroext true)
  %37 = load ptr, ptr %2, align 8
  %38 = getelementptr inbounds nuw %struct.RewriteStateData, ptr %37, i32 0, i32 3
  store ptr null, ptr %38, align 8
  br label %39

39:                                               ; preds = %27, %22
  %40 = load ptr, ptr %2, align 8
  %41 = getelementptr inbounds nuw %struct.RewriteStateData, ptr %40, i32 0, i32 2
  %42 = load ptr, ptr %41, align 8
  call void @smgr_bulk_finish(ptr noundef %42)
  %43 = load ptr, ptr %2, align 8
  call void @logical_end_heap_rewrite(ptr noundef %43)
  %44 = load ptr, ptr %2, align 8
  %45 = getelementptr inbounds nuw %struct.RewriteStateData, ptr %44, i32 0, i32 10
  %46 = load ptr, ptr %45, align 8
  call void @MemoryContextDelete(ptr noundef %46)
  call void @llvm.lifetime.end.p0(i64 8, ptr %4) #10
  call void @llvm.lifetime.end.p0(i64 32, ptr %3) #10
  ret void
}