; Function Attrs: nounwind uwtable
define dso_local void @end_heap_rewrite(ptr noundef captures(none) %0) local_unnamed_addr #0 {
  %2 = alloca %struct.HASH_SEQ_STATUS, align 8
  %3 = alloca %struct.HASH_SEQ_STATUS, align 8
  call void @llvm.lifetime.start.p0(i64 32, ptr nonnull %3) #13
  %4 = getelementptr inbounds nuw i8, ptr %0, i64 72
  %5 = load ptr, ptr %4, align 8
  call void @hash_seq_init(ptr noundef nonnull %3, ptr noundef %5) #13
  %6 = call ptr @hash_seq_search(ptr noundef nonnull %3) #13
  %.not14 = icmp eq ptr %6, null
  br i1 %.not14, label %._crit_edge, label %.lr.ph

.lr.ph:                                           ; preds = %1, %.lr.ph
  %7 = phi ptr [ %16, %.lr.ph ], [ %6, %1 ]
  %8 = getelementptr inbounds nuw i8, ptr %7, i64 24
  %9 = load ptr, ptr %8, align 8
  %10 = getelementptr inbounds nuw i8, ptr %9, i64 16
  %11 = load ptr, ptr %10, align 8
  %12 = getelementptr inbounds nuw i8, ptr %11, i64 12
  store i16 -1, ptr %12, align 2
  %13 = getelementptr inbounds nuw i8, ptr %11, i64 14
  store i16 -1, ptr %13, align 2
  %14 = getelementptr inbounds nuw i8, ptr %11, i64 16
  store i16 0, ptr %14, align 2
  %15 = load ptr, ptr %8, align 8
  call fastcc void @raw_heap_insert(ptr noundef %0, ptr noundef %15)
  %16 = call ptr @hash_seq_search(ptr noundef nonnull %3) #13
  %.not = icmp eq ptr %16, null
  br i1 %.not, label %._crit_edge, label %.lr.ph, !llvm.loop !6

._crit_edge:                                      ; preds = %.lr.ph, %1
  %17 = getelementptr inbounds nuw i8, ptr %0, i64 24
  %18 = load ptr, ptr %17, align 8
  %.not13 = icmp eq ptr %18, null
  br i1 %.not13, label %24, label %19

19:                                               ; preds = %._crit_edge
  %20 = getelementptr inbounds nuw i8, ptr %0, i64 16
  %21 = load ptr, ptr %20, align 8
  %22 = getelementptr inbounds nuw i8, ptr %0, i64 32
  %23 = load i32, ptr %22, align 8
  call void @smgr_bulk_write(ptr noundef %21, i32 noundef %23, ptr noundef nonnull %18, i1 noundef zeroext true) #13
  store ptr null, ptr %17, align 8
  br label %24

24:                                               ; preds = %19, %._crit_edge
  %25 = getelementptr inbounds nuw i8, ptr %0, i64 16
  %26 = load ptr, ptr %25, align 8
  call void @smgr_bulk_finish(ptr noundef %26) #13
  call void @llvm.lifetime.start.p0(i64 32, ptr nonnull %2) #13
  %27 = getelementptr inbounds nuw i8, ptr %0, i64 36
  %28 = load i8, ptr %27, align 4, !range !4, !noundef !5
  %29 = trunc nuw i8 %28 to i1
  br i1 %29, label %30, label %logical_end_heap_rewrite.exit

30:                                               ; preds = %24
  %31 = getelementptr inbounds nuw i8, ptr %0, i64 96
  %32 = load i32, ptr %31, align 8
  %.not.i = icmp eq i32 %32, 0
  br i1 %.not.i, label %34, label %33

33:                                               ; preds = %30
  call fastcc void @logical_heap_rewrite_flush_mappings(ptr noundef nonnull %0)
  br label %34

34:                                               ; preds = %33, %30
  %35 = getelementptr inbounds nuw i8, ptr %0, i64 88
  %36 = load ptr, ptr %35, align 8
  call void @hash_seq_init(ptr noundef nonnull %2, ptr noundef %36) #13
  %37 = call ptr @hash_seq_search(ptr noundef nonnull %2) #13
  %.not79.i = icmp eq ptr %37, null
  br i1 %.not79.i, label %logical_end_heap_rewrite.exit, label %.lr.ph.i

.lr.ph.i:                                         ; preds = %34, %49
  %38 = phi ptr [ %51, %49 ], [ %37, %34 ]
  %39 = getelementptr inbounds nuw i8, ptr %38, i64 4
  %40 = load i32, ptr %39, align 4
  %41 = call i32 @FileSync(i32 noundef %40, i32 noundef 167772193) #13
  %.not8.i = icmp eq i32 %41, 0
  br i1 %.not8.i, label %49, label %42

42:                                               ; preds = %.lr.ph.i
  %43 = call i32 @data_sync_elevel(i32 noundef 21) #13
  %44 = call zeroext i1 @errstart(i32 noundef %43, ptr noundef null) #13
  br i1 %44, label %45, label %49

45:                                               ; preds = %42
  %46 = call i32 @errcode_for_file_access() #13
  %47 = getelementptr inbounds nuw i8, ptr %38, i64 40
  %48 = call i32 (ptr, ...) @errmsg(ptr noundef nonnull @.str.9, ptr noundef nonnull %47) #13
  call void @errfinish(ptr noundef nonnull @.str.6, i32 noundef 925, ptr noundef nonnull @__func__.logical_end_heap_rewrite) #13
  br label %49

49:                                               ; preds = %45, %42, %.lr.ph.i
  %50 = load i32, ptr %39, align 4
  call void @FileClose(i32 noundef %50) #13
  %51 = call ptr @hash_seq_search(ptr noundef nonnull %2) #13
  %.not7.i = icmp eq ptr %51, null
  br i1 %.not7.i, label %logical_end_heap_rewrite.exit, label %.lr.ph.i, !llvm.loop !8

logical_end_heap_rewrite.exit:                    ; preds = %49, %24, %34
  call void @llvm.lifetime.end.p0(i64 32, ptr nonnull %2) #13
  %52 = getelementptr inbounds nuw i8, ptr %0, i64 56
  %53 = load ptr, ptr %52, align 8
  call void @MemoryContextDelete(ptr noundef %53) #13
  call void @llvm.lifetime.end.p0(i64 32, ptr nonnull %3) #13
  ret void
}